target datalayout = "e-m:e-p270:32:32-p271:32:32-p272:64:64-i64:64-i128:128-f80:128-n8:16:32:64-S128"
target triple = "x86_64-pc-linux-gnu"

%struct.dirent = type { i64, i64, i16, i8, [256 x i8] }

@.str.1 = private unnamed_addr constant [10 x i8] c"snapmgr.c\00", align 1
@.str.33 = private unnamed_addr constant [16 x i8] c"pg_snapshots/%s\00", align 1
@.str.56 = private unnamed_addr constant [13 x i8] c"pg_snapshots\00", align 1
@.str.57 = private unnamed_addr constant [2 x i8] c".\00", align 1
@.str.58 = private unnamed_addr constant [3 x i8] c"..\00", align 1
@.str.59 = private unnamed_addr constant [31 x i8] c"could not remove file \22%s\22: %m\00", align 1
@__func__.DeleteAllExportedSnapshotFiles = private unnamed_addr constant [31 x i8] c"DeleteAllExportedSnapshotFiles\00", align 1

; Function Attrs: nounwind uwtable
define dso_local void @DeleteAllExportedSnapshotFiles() #0 {
  %1 = alloca [1037 x i8], align 16
  %2 = alloca ptr, align 8
  %3 = alloca ptr, align 8
  call void @llvm.lifetime.start.p0(i64 1037, ptr %1) #14
  call void @llvm.lifetime.start.p0(i64 8, ptr %2) #14
  call void @llvm.lifetime.start.p0(i64 8, ptr %3) #14
  %4 = call ptr @AllocateDir(ptr noundef @.str.56)
  store ptr %4, ptr %2, align 8
  br label %5

5:                                                ; preds = %44, %21, %0
  %6 = load ptr, ptr %2, align 8
  %7 = call ptr @ReadDirExtended(ptr noundef %6, ptr noundef @.str.56, i32 noundef 15)
  store ptr %7, ptr %3, align 8
  %8 = icmp ne ptr %7, null
  br i1 %8, label %9, label %45

9:                                                ; preds = %5
  %10 = load ptr, ptr %3, align 8
  %11 = getelementptr inbounds nuw %struct.dirent, ptr %10, i32 0, i32 4
  %12 = getelementptr inbounds [256 x i8], ptr %11, i64 0, i64 0
  %13 = call i32 @strcmp(ptr noundef %12, ptr noundef @.str.57) #15
  %14 = icmp eq i32 %13, 0
  br i1 %14, label %21, label %15

15:                                               ; preds = %9
  %16 = load ptr, ptr %3, align 8
  %17 = getelementptr inbounds nuw %struct.dirent, ptr %16, i32 0, i32 4
  %18 = getelementptr inbounds [256 x i8], ptr %17, i64 0, i64 0
  %19 = call i32 @strcmp(ptr noundef %18, ptr noundef @.str.58) #15
  %20 = icmp eq i32 %19, 0
  br i1 %20, label %21, label %22

21:                                               ; preds = %15, %9
  br label %5, !llvm.loop !16

22:                                               ; preds = %15
  %23 = getelementptr inbounds [1037 x i8], ptr %1, i64 0, i64 0
  %24 = load ptr, ptr %3, align 8
  %25 = getelementptr inbounds nuw %struct.dirent, ptr %24, i32 0, i32 4
  %26 = getelementptr inbounds [256 x i8], ptr %25, i64 0, i64 0
  %27 = call i32 (ptr, i64, ptr, ...) @pg_snprintf(ptr noundef %23, i64 noundef 1037, ptr noundef @.str.33, ptr noundef %26)
  %28 = getelementptr inbounds [1037 x i8], ptr %1, i64 0, i64 0
  %29 = call i32 @unlink(ptr noundef %28) #14
  %30 = icmp ne i32 %29, 0
  br i1 %30, label %31, label %44

31:                                               ; preds = %22
  br label %32

32:                                               ; preds = %31
  br i1 false, label %33, label %35

33:                                               ; preds = %32
  %34 = call zeroext i1 @errstart_cold(i32 noundef 15, ptr noundef null) #13
  br i1 %34, label %37, label %41

35:                                               ; preds = %32
  %36 = call zeroext i1 @errstart(i32 noundef 15, ptr noundef null)
  br i1 %36, label %37, label %41

37:                                               ; preds = %35, %33
  %38 = call i32 @errcode_for_file_access()
  %39 = getelementptr inbounds [1037 x i8], ptr %1, i64 0, i64 0
  %40 = call i32 (ptr, ...) @errmsg(ptr noundef @.str.59, ptr noundef %39)
  call void @errfinish(ptr noundef @.str.1, i32 noundef 1539, ptr noundef @__func__.DeleteAllExportedSnapshotFiles)
  br label %41

41:                                               ; preds = %37, %35, %33
  br label %42

42:                                               ; preds = %41
  br label %43

43:                                               ; preds = %42
  br label %44

44:                                               ; preds = %43, %22
  br label %5, !llvm.loop !16

45:                                               ; preds = %5
  %46 = load ptr, ptr %2, align 8
  %47 = call i32 @FreeDir(ptr noundef %46)
  call void @llvm.lifetime.end.p0(i64 8, ptr %3) #14
  call void @llvm.lifetime.end.p0(i64 8, ptr %2) #14
  call void @llvm.lifetime.end.p0(i64 1037, ptr %1) #14
  ret void
}