; Function Attrs: nounwind uwtable
define dso_local void @DeleteAllExportedSnapshotFiles() local_unnamed_addr #0 {
  %1 = alloca [1037 x i8], align 16
  call void @llvm.lifetime.start.p0(i64 1037, ptr nonnull %1) #18
  %2 = tail call ptr @AllocateDir(ptr noundef nonnull @.str.56) #18
  %3 = tail call ptr @ReadDirExtended(ptr noundef %2, ptr noundef nonnull @.str.56, i32 noundef 15) #18
  %.not10 = icmp eq ptr %3, null
  br i1 %.not10, label %._crit_edge, label %sub_0

sub_0:                                            ; preds = %0, %.backedge
  %4 = phi ptr [ %15, %.backedge ], [ %3, %0 ]
  %5 = getelementptr inbounds nuw i8, ptr %4, i64 19
  %6 = load i8, ptr %5, align 1
  %.not11 = icmp eq i8 %6, 46
  br i1 %.not11, label %.tail, label %.tail6.thread

.tail:                                            ; preds = %sub_0
  %7 = getelementptr inbounds nuw i8, ptr %4, i64 20
  %8 = load i8, ptr %7, align 1
  %9 = icmp eq i8 %8, 0
  br i1 %9, label %.backedge, label %sub_18

sub_18:                                           ; preds = %.tail
  %10 = getelementptr inbounds nuw i8, ptr %4, i64 20
  %11 = load i8, ptr %10, align 1
  %.not13 = icmp eq i8 %11, 46
  br i1 %.not13, label %.tail6, label %.tail6.thread

.tail6:                                           ; preds = %sub_18
  %12 = getelementptr inbounds nuw i8, ptr %4, i64 21
  %13 = load i8, ptr %12, align 1
  %14 = icmp eq i8 %13, 0
  br i1 %14, label %.backedge, label %.tail6.thread

.backedge:                                        ; preds = %.tail6.thread, %20, %18, %.tail, %.tail6
  %15 = call ptr @ReadDirExtended(ptr noundef %2, ptr noundef nonnull @.str.56, i32 noundef 15) #18
  %.not = icmp eq ptr %15, null
  br i1 %.not, label %._crit_edge, label %sub_0, !llvm.loop !16

.tail6.thread:                                    ; preds = %sub_0, %sub_18, %.tail6
  %16 = call i32 (ptr, i64, ptr, ...) @pg_snprintf(ptr noundef nonnull %1, i64 noundef 1037, ptr noundef nonnull @.str.33, ptr noundef nonnull %5) #18
  %17 = call i32 @unlink(ptr noundef nonnull %1) #18
  %.not5 = icmp eq i32 %17, 0
  br i1 %.not5, label %.backedge, label %18

18:                                               ; preds = %.tail6.thread
  %19 = call zeroext i1 @errstart(i32 noundef 15, ptr noundef null) #18
  br i1 %19, label %20, label %.backedge

20:                                               ; preds = %18
  %21 = call i32 @errcode_for_file_access() #18
  %22 = call i32 (ptr, ...) @errmsg(ptr noundef nonnull @.str.59, ptr noundef nonnull %1) #18
  call void @errfinish(ptr noundef nonnull @.str.1, i32 noundef 1539, ptr noundef nonnull @__func__.DeleteAllExportedSnapshotFiles) #18
  br label %.backedge

._crit_edge:                                      ; preds = %.backedge, %0
  %23 = call i32 @FreeDir(ptr noundef %2) #18
  call void @llvm.lifetime.end.p0(i64 1037, ptr nonnull %1) #18
  ret void
}